target datalayout = "e-m:e-p270:32:32-p271:32:32-p272:64:64-i64:64-i128:128-f80:128-n8:16:32:64-S128"
target triple = "x86_64-pc-linux-gnu"

%struct.cJSON = type { ptr, ptr, ptr, i32, ptr, i32, double, ptr }

; Function Attrs: nounwind sspstrong uwtable
define internal i32 @insert_item_in_array(ptr noundef %0, i64 noundef %1, ptr noundef %2) #0 {
  %4 = alloca i32, align 4
  %5 = alloca ptr, align 8
  %6 = alloca i64, align 8
  %7 = alloca ptr, align 8
  %8 = alloca ptr, align 8
  %9 = alloca i32, align 4
  store ptr %0, ptr %5, align 8, !tbaa !3
  store i64 %1, ptr %6, align 8, !tbaa !8
  store ptr %2, ptr %7, align 8, !tbaa !3
  call void @llvm.lifetime.start.p0(i64 8, ptr %8) #8
  %10 = load ptr, ptr %5, align 8, !tbaa !3
  %11 = getelementptr inbounds nuw %struct.cJSON, ptr %10, i32 0, i32 2
  %12 = load ptr, ptr %11, align 8, !tbaa !10
  store ptr %12, ptr %8, align 8, !tbaa !3
  br label %13

13:                                               ; preds = %21, %3
  %14 = load ptr, ptr %8, align 8, !tbaa !3
  %15 = icmp ne ptr %14, null
  br i1 %15, label %16, label %19

16:                                               ; preds = %13
  %17 = load i64, ptr %6, align 8, !tbaa !8
  %18 = icmp ugt i64 %17, 0
  br label %19

19:                                               ; preds = %16, %13
  %20 = phi i1 [ false, %13 ], [ %18, %16 ]
  br i1 %20, label %21, label %27

21:                                               ; preds = %19
  %22 = load ptr, ptr %8, align 8, !tbaa !3
  %23 = getelementptr inbounds nuw %struct.cJSON, ptr %22, i32 0, i32 0
  %24 = load ptr, ptr %23, align 8, !tbaa !18
  store ptr %24, ptr %8, align 8, !tbaa !3
  %25 = load i64, ptr %6, align 8, !tbaa !8
  %26 = add i64 %25, -1
  store i64 %26, ptr %6, align 8, !tbaa !8
  br label %13

27:                                               ; preds = %19
  %28 = load i64, ptr %6, align 8, !tbaa !8
  %29 = icmp ugt i64 %28, 0
  br i1 %29, label %30, label %31

30:                                               ; preds = %27
  store i32 0, ptr %4, align 4
  store i32 1, ptr %9, align 4
  br label %66

31:                                               ; preds = %27
  %32 = load ptr, ptr %8, align 8, !tbaa !3
  %33 = icmp eq ptr %32, null
  br i1 %33, label %34, label %38

34:                                               ; preds = %31
  %35 = load ptr, ptr %5, align 8, !tbaa !3
  %36 = load ptr, ptr %7, align 8, !tbaa !3
  %37 = call i32 @cJSON_AddItemToArray(ptr noundef %35, ptr noundef %36)
  store i32 1, ptr %4, align 4
  store i32 1, ptr %9, align 4
  br label %66

38:                                               ; preds = %31
  %39 = load ptr, ptr %8, align 8, !tbaa !3
  %40 = load ptr, ptr %7, align 8, !tbaa !3
  %41 = getelementptr inbounds nuw %struct.cJSON, ptr %40, i32 0, i32 0
  store ptr %39, ptr %41, align 8, !tbaa !18
  %42 = load ptr, ptr %8, align 8, !tbaa !3
  %43 = getelementptr inbounds nuw %struct.cJSON, ptr %42, i32 0, i32 1
  %44 = load ptr, ptr %43, align 8, !tbaa !28
  %45 = load ptr, ptr %7, align 8, !tbaa !3
  %46 = getelementptr inbounds nuw %struct.cJSON, ptr %45, i32 0, i32 1
  store ptr %44, ptr %46, align 8, !tbaa !28
  %47 = load ptr, ptr %7, align 8, !tbaa !3
  %48 = load ptr, ptr %8, align 8, !tbaa !3
  %49 = getelementptr inbounds nuw %struct.cJSON, ptr %48, i32 0, i32 1
  store ptr %47, ptr %49, align 8, !tbaa !28
  %50 = load ptr, ptr %8, align 8, !tbaa !3
  %51 = load ptr, ptr %5, align 8, !tbaa !3
  %52 = getelementptr inbounds nuw %struct.cJSON, ptr %51, i32 0, i32 2
  %53 = load ptr, ptr %52, align 8, !tbaa !10
  %54 = icmp eq ptr %50, %53
  br i1 %54, label %55, label %59

55:                                               ; preds = %38
  %56 = load ptr, ptr %7, align 8, !tbaa !3
  %57 = load ptr, ptr %5, align 8, !tbaa !3
  %58 = getelementptr inbounds nuw %struct.cJSON, ptr %57, i32 0, i32 2
  store ptr %56, ptr %58, align 8, !tbaa !10
  br label %65

59:                                               ; preds = %38
  %60 = load ptr, ptr %7, align 8, !tbaa !3
  %61 = load ptr, ptr %7, align 8, !tbaa !3
  %62 = getelementptr inbounds nuw %struct.cJSON, ptr %61, i32 0, i32 1
  %63 = load ptr, ptr %62, align 8, !tbaa !28
  %64 = getelementptr inbounds nuw %struct.cJSON, ptr %63, i32 0, i32 0
  store ptr %60, ptr %64, align 8, !tbaa !18
  br label %65

65:                                               ; preds = %59, %55
  store i32 1, ptr %4, align 4
  store i32 1, ptr %9, align 4
  br label %66

66:                                               ; preds = %65, %34, %30
  call void @llvm.lifetime.end.p0(i64 8, ptr %8) #8
  %67 = load i32, ptr %4, align 4
  ret i32 %67
}