; Function Attrs: nounwind sspstrong uwtable
define internal fastcc range(i32 0, 2) i32 @insert_item_in_array(ptr noundef nonnull %0, i64 noundef %1, ptr noundef %2) unnamed_addr #0 {
  %4 = getelementptr inbounds nuw i8, ptr %0, i64 16
  br label %5

5:                                                ; preds = %5, %3
  %.022 = phi i64 [ %1, %3 ], [ %9, %5 ]
  %.0.in = phi ptr [ %4, %3 ], [ %.0, %5 ]
  %.0 = load ptr, ptr %.0.in, align 8, !tbaa !3
  %6 = icmp ne ptr %.0, null
  %7 = icmp ne i64 %.022, 0
  %8 = select i1 %6, i1 %7, i1 false
  %9 = add i64 %.022, -1
  br i1 %8, label %5, label %10

10:                                               ; preds = %5
  br i1 %7, label %24, label %11

11:                                               ; preds = %10
  %12 = icmp eq ptr %.0, null
  br i1 %12, label %13, label %15

13:                                               ; preds = %11
  %14 = tail call i32 @cJSON_AddItemToArray(ptr noundef nonnull %0, ptr noundef %2) #13
  br label %24

15:                                               ; preds = %11
  store ptr %.0, ptr %2, align 8, !tbaa !18
  %16 = getelementptr inbounds nuw i8, ptr %.0, i64 8
  %17 = load ptr, ptr %16, align 8, !tbaa !25
  %18 = getelementptr inbounds nuw i8, ptr %2, i64 8
  store ptr %17, ptr %18, align 8, !tbaa !25
  store ptr %2, ptr %16, align 8, !tbaa !25
  %19 = load ptr, ptr %4, align 8, !tbaa !17
  %20 = icmp eq ptr %.0, %19
  br i1 %20, label %21, label %22

21:                                               ; preds = %15
  store ptr %2, ptr %4, align 8, !tbaa !17
  br label %24

22:                                               ; preds = %15
  %23 = load ptr, ptr %18, align 8, !tbaa !25
  store ptr %2, ptr %23, align 8, !tbaa !18
  br label %24

24:                                               ; preds = %21, %22, %10, %13
  %.021 = phi i32 [ 1, %13 ], [ 0, %10 ], [ 1, %22 ], [ 1, %21 ]
  ret i32 %.021
}